target datalayout = "e-m:e-p270:32:32-p271:32:32-p272:64:64-i64:64-i128:128-f80:128-n8:16:32:64-S128"
target triple = "x86_64-pc-linux-gnu"

%class.LIR_Opr = type { i64 }
%class.LIRGenerator = type { %class.InstructionVisitor, %class.BlockClosure, ptr, ptr, %class.PhiResolverState, ptr, i32, %class.BitMap2D, ptr, %class.GrowableArray.0, %class.GrowableArray.3, %class.GrowableArray.6, ptr }
%class.InstructionVisitor = type { ptr }
%class.BlockClosure = type { ptr }
%class.PhiResolverState = type { %class.GrowableArray, %class.GrowableArray, %class.GrowableArray }
%class.GrowableArray = type { %class.GrowableArrayWithAllocator, %class.GrowableArrayMetadata }
%class.GrowableArrayWithAllocator = type { %class.GrowableArrayView }
%class.GrowableArrayView = type { %class.GrowableArrayBase, ptr }
%class.GrowableArrayBase = type { i32, i32 }
%class.GrowableArrayMetadata = type { i64 }
%class.BitMap2D = type { %class.ResourceBitMap, i64 }
%class.ResourceBitMap = type { %class.GrowableBitMap }
%class.GrowableBitMap = type { %class.BitMap }
%class.BitMap = type { ptr, i64 }
%class.GrowableArray.0 = type { %class.GrowableArrayWithAllocator.1, %class.GrowableArrayMetadata }
%class.GrowableArrayWithAllocator.1 = type { %class.GrowableArrayView.2 }
%class.GrowableArrayView.2 = type { %class.GrowableArrayBase, ptr }
%class.GrowableArray.3 = type { %class.GrowableArrayWithAllocator.4, %class.GrowableArrayMetadata }
%class.GrowableArrayWithAllocator.4 = type { %class.GrowableArrayView.5 }
%class.GrowableArrayView.5 = type { %class.GrowableArrayBase, ptr }
%class.GrowableArray.6 = type { %class.GrowableArrayWithAllocator.7, %class.GrowableArrayMetadata }
%class.GrowableArrayWithAllocator.7 = type { %class.GrowableArrayView.8 }
%class.GrowableArrayView.8 = type { %class.GrowableArrayBase, ptr }

@_ZN11LIR_OprFact10illegalOprE = external global %class.LIR_Opr, align 8
@ShenandoahIUBarrier = external global i8, align 1

; Function Attrs: mustprogress nounwind uwtable
define linkonce_odr hidden noundef i64 @_ZNK7LIR_Opr5valueEv(ptr noundef nonnull align 8 dereferenceable(8) %0) #1 comdat align 2 {
  %2 = alloca ptr, align 8
  store ptr %0, ptr %2, align 8
  %3 = load ptr, ptr %2, align 8
  %4 = getelementptr inbounds %class.LIR_Opr, ptr %3, i32 0, i32 0
  %5 = load i64, ptr %4, align 8
  ret i64 %5
}

; Function Attrs: mustprogress nounwind uwtable
define linkonce_odr hidden noundef zeroext i1 @_ZNK7LIR_Opr16check_value_maskEll(ptr noundef nonnull align 8 dereferenceable(8) %0, i64 noundef %1, i64 noundef %2) #1 comdat align 2 {
  %4 = alloca ptr, align 8
  %5 = alloca i64, align 8
  %6 = alloca i64, align 8
  store ptr %0, ptr %4, align 8
  store i64 %1, ptr %5, align 8
  store i64 %2, ptr %6, align 8
  %7 = load ptr, ptr %4, align 8
  %8 = call noundef i64 @_ZNK7LIR_Opr5valueEv(ptr noundef nonnull align 8 dereferenceable(8) %7)
  %9 = load i64, ptr %5, align 8
  %10 = and i64 %8, %9
  %11 = load i64, ptr %6, align 8
  %12 = icmp eq i64 %10, %11
  ret i1 %12
}

; Function Attrs: mustprogress nounwind uwtable
define linkonce_odr hidden void @_ZNK7LIR_Opr13validate_typeEv(ptr noundef nonnull align 8 dereferenceable(8) %0) #1 comdat align 2 {
  %2 = alloca ptr, align 8
  store ptr %0, ptr %2, align 8
  ret void
}

; Function Attrs: mustprogress nounwind uwtable
define linkonce_odr hidden noundef ptr @_ZNK7LIR_Opr7pointerEv(ptr noundef nonnull align 8 dereferenceable(8) %0) #1 comdat align 2 {
  %2 = alloca ptr, align 8
  store ptr %0, ptr %2, align 8
  %3 = load ptr, ptr %2, align 8
  %4 = getelementptr inbounds %class.LIR_Opr, ptr %3, i32 0, i32 0
  %5 = load i64, ptr %4, align 8
  %6 = inttoptr i64 %5 to ptr
  ret ptr %6
}

; Function Attrs: mustprogress nounwind uwtable
define linkonce_odr hidden noundef zeroext i1 @_ZNK7LIR_Opr10is_pointerEv(ptr noundef nonnull align 8 dereferenceable(8) %0) #1 comdat align 2 {
  %2 = alloca ptr, align 8
  store ptr %0, ptr %2, align 8
  %3 = load ptr, ptr %2, align 8
  %4 = call noundef zeroext i1 @_ZNK7LIR_Opr16check_value_maskEll(ptr noundef nonnull align 8 dereferenceable(8) %3, i64 noundef 1, i64 noundef 0)
  ret i1 %4
}

; Function Attrs: mustprogress nounwind uwtable
define linkonce_odr hidden noundef zeroext i1 @_ZNK7LIR_Opr15is_fpu_registerEv(ptr noundef nonnull align 8 dereferenceable(8) %0) #1 comdat align 2 {
  %2 = alloca ptr, align 8
  store ptr %0, ptr %2, align 8
  %3 = load ptr, ptr %2, align 8
  call void @_ZNK7LIR_Opr13validate_typeEv(ptr noundef nonnull align 8 dereferenceable(8) %3)
  %4 = call noundef zeroext i1 @_ZNK7LIR_Opr16check_value_maskEll(ptr noundef nonnull align 8 dereferenceable(8) %3, i64 noundef 7, i64 noundef 5)
  ret i1 %4
}

; Function Attrs: mustprogress nounwind uwtable
define linkonce_odr hidden noundef zeroext i1 @_ZNK7LIR_Opr15is_cpu_registerEv(ptr noundef nonnull align 8 dereferenceable(8) %0) #1 comdat align 2 {
  %2 = alloca ptr, align 8
  store ptr %0, ptr %2, align 8
  %3 = load ptr, ptr %2, align 8
  call void @_ZNK7LIR_Opr13validate_typeEv(ptr noundef nonnull align 8 dereferenceable(8) %3)
  %4 = call noundef zeroext i1 @_ZNK7LIR_Opr16check_value_maskEll(ptr noundef nonnull align 8 dereferenceable(8) %3, i64 noundef 7, i64 noundef 3)
  ret i1 %4
}

; Function Attrs: mustprogress nounwind uwtable
define linkonce_odr hidden i64 @_ZN12LIRGenerator20new_pointer_registerEv(ptr noundef nonnull align 8 dereferenceable(232) %0) #1 comdat align 2 {
  %2 = alloca %class.LIR_Opr, align 8
  %3 = alloca ptr, align 8
  store ptr %0, ptr %3, align 8
  %4 = load ptr, ptr %3, align 8
  %5 = call i64 @_ZN12LIRGenerator12new_registerE9BasicType(ptr noundef nonnull align 8 dereferenceable(232) %4, i8 noundef zeroext 11)
  %6 = getelementptr inbounds %class.LIR_Opr, ptr %2, i32 0, i32 0
  store i64 %5, ptr %6, align 8
  %7 = getelementptr inbounds %class.LIR_Opr, ptr %2, i32 0, i32 0
  %8 = load i64, ptr %7, align 8
  ret i64 %8
}

; Function Attrs: mustprogress nounwind uwtable
define linkonce_odr hidden noundef ptr @_ZNK12LIRGenerator3lirEv(ptr noundef nonnull align 8 dereferenceable(232) %0) #1 comdat align 2 {
  %2 = alloca ptr, align 8
  store ptr %0, ptr %2, align 8
  %3 = load ptr, ptr %2, align 8
  %4 = getelementptr inbounds %class.LIRGenerator, ptr %3, i32 0, i32 8
  %5 = load ptr, ptr %4, align 8
  ret ptr %5
}

; Function Attrs: mustprogress nounwind uwtable
define linkonce_odr hidden noundef zeroext i1 @_ZNK7LIR_Opr11is_constantEv(ptr noundef nonnull align 8 dereferenceable(8) %0) #1 comdat align 2 {
  %2 = alloca ptr, align 8
  store ptr %0, ptr %2, align 8
  %3 = load ptr, ptr %2, align 8
  %4 = call noundef zeroext i1 @_ZNK7LIR_Opr10is_pointerEv(ptr noundef nonnull align 8 dereferenceable(8) %3)
  br i1 %4, label %5, label %12

5:                                                ; preds = %1
  %6 = call noundef ptr @_ZNK7LIR_Opr7pointerEv(ptr noundef nonnull align 8 dereferenceable(8) %3)
  %7 = load ptr, ptr %6, align 8
  %8 = getelementptr inbounds ptr, ptr %7, i64 0
  %9 = load ptr, ptr %8, align 8
  %10 = call noundef ptr %9(ptr noundef nonnull align 8 dereferenceable(8) %6)
  %11 = icmp ne ptr %10, null
  br label %12

12:                                               ; preds = %5, %1
  %13 = phi i1 [ false, %1 ], [ %11, %5 ]
  ret i1 %13
}

; Function Attrs: mustprogress nounwind uwtable
define linkonce_odr hidden void @_ZN7LIR_OprC2Ev(ptr noundef nonnull align 8 dereferenceable(8) %0) unnamed_addr #1 comdat align 2 {
  %2 = alloca ptr, align 8
  store ptr %0, ptr %2, align 8
  %3 = load ptr, ptr %2, align 8
  %4 = getelementptr inbounds %class.LIR_Opr, ptr %3, i32 0, i32 0
  store i64 0, ptr %4, align 8
  ret void
}

; Function Attrs: mustprogress nounwind uwtable
define linkonce_odr hidden noundef zeroext i1 @_ZNK7LIR_Opr11is_registerEv(ptr noundef nonnull align 8 dereferenceable(8) %0) #1 comdat align 2 {
  %2 = alloca ptr, align 8
  store ptr %0, ptr %2, align 8
  %3 = load ptr, ptr %2, align 8
  %4 = call noundef zeroext i1 @_ZNK7LIR_Opr15is_cpu_registerEv(ptr noundef nonnull align 8 dereferenceable(8) %3)
  br i1 %4, label %7, label %5

5:                                                ; preds = %1
  %6 = call noundef zeroext i1 @_ZNK7LIR_Opr15is_fpu_registerEv(ptr noundef nonnull align 8 dereferenceable(8) %3)
  br label %7

7:                                                ; preds = %5, %1
  %8 = phi i1 [ true, %1 ], [ %6, %5 ]
  ret i1 %8
}

; Function Attrs: mustprogress nounwind uwtable
define linkonce_odr hidden noundef ptr @_ZN7LIR_OprptEv(ptr noundef nonnull align 8 dereferenceable(8) %0) #1 comdat align 2 {
  %2 = alloca ptr, align 8
  store ptr %0, ptr %2, align 8
  %3 = load ptr, ptr %2, align 8
  ret ptr %3
}

; Function Attrs: mustprogress nounwind uwtable
define hidden i64 @_ZN22ShenandoahBarrierSetC118ensure_in_registerEP12LIRGenerator7LIR_Opr9BasicType(ptr noundef nonnull align 8 dereferenceable(48) %0, ptr noundef %1, i64 %2, i8 noundef zeroext %3) #1 align 2 {
  %5 = alloca %class.LIR_Opr, align 8
  %6 = alloca %class.LIR_Opr, align 8
  %7 = alloca ptr, align 8
  %8 = alloca ptr, align 8
  %9 = alloca i8, align 1
  %10 = alloca %class.LIR_Opr, align 8
  %11 = alloca %class.LIR_Opr, align 8
  %12 = alloca %class.LIR_Opr, align 8
  %13 = alloca %class.LIR_Opr, align 8
  %14 = alloca %class.LIR_Opr, align 8
  %15 = alloca %class.LIR_Opr, align 8
  %16 = alloca %class.LIR_Opr, align 8
  %17 = getelementptr inbounds %class.LIR_Opr, ptr %6, i32 0, i32 0
  store i64 %2, ptr %17, align 8
  store ptr %0, ptr %7, align 8
  store ptr %1, ptr %8, align 8
  store i8 %3, ptr %9, align 1
  %18 = call noundef ptr @_ZN7LIR_OprptEv(ptr noundef nonnull align 8 dereferenceable(8) %6)
  %19 = call noundef zeroext i1 @_ZNK7LIR_Opr11is_registerEv(ptr noundef nonnull align 8 dereferenceable(8) %18)
  br i1 %19, label %45, label %20

20:                                               ; preds = %4
  call void @_ZN7LIR_OprC2Ev(ptr noundef nonnull align 8 dereferenceable(8) %10)
  %21 = call noundef ptr @_ZN7LIR_OprptEv(ptr noundef nonnull align 8 dereferenceable(8) %6)
  %22 = call noundef zeroext i1 @_ZNK7LIR_Opr11is_constantEv(ptr noundef nonnull align 8 dereferenceable(8) %21)
  br i1 %22, label %23, label %34

23:                                               ; preds = %20
  %24 = load ptr, ptr %8, align 8
  %25 = load i8, ptr %9, align 1
  %26 = call i64 @_ZN12LIRGenerator12new_registerE9BasicType(ptr noundef nonnull align 8 dereferenceable(232) %24, i8 noundef zeroext %25)
  %27 = getelementptr inbounds %class.LIR_Opr, ptr %11, i32 0, i32 0
  store i64 %26, ptr %27, align 8
  call void @llvm.memcpy.p0.p0.i64(ptr align 8 %10, ptr align 8 %11, i64 8, i1 false)
  %28 = load ptr, ptr %8, align 8
  %29 = call noundef ptr @_ZNK12LIRGenerator3lirEv(ptr noundef nonnull align 8 dereferenceable(232) %28)
  call void @llvm.memcpy.p0.p0.i64(ptr align 8 %12, ptr align 8 %6, i64 8, i1 false)
  call void @llvm.memcpy.p0.p0.i64(ptr align 8 %13, ptr align 8 %10, i64 8, i1 false)
  %30 = getelementptr inbounds %class.LIR_Opr, ptr %12, i32 0, i32 0
  %31 = load i64, ptr %30, align 8
  %32 = getelementptr inbounds %class.LIR_Opr, ptr %13, i32 0, i32 0
  %33 = load i64, ptr %32, align 8
  call void @_ZN8LIR_List4moveE7LIR_OprS0_P12CodeEmitInfo(ptr noundef nonnull align 8 dereferenceable(32) %29, i64 %31, i64 %33, ptr noundef null)
  br label %44

34:                                               ; preds = %20
  %35 = load ptr, ptr %8, align 8
  %36 = call i64 @_ZN12LIRGenerator20new_pointer_registerEv(ptr noundef nonnull align 8 dereferenceable(232) %35)
  %37 = getelementptr inbounds %class.LIR_Opr, ptr %14, i32 0, i32 0
  store i64 %36, ptr %37, align 8
  call void @llvm.memcpy.p0.p0.i64(ptr align 8 %10, ptr align 8 %14, i64 8, i1 false)
  %38 = load ptr, ptr %8, align 8
  %39 = call noundef ptr @_ZNK12LIRGenerator3lirEv(ptr noundef nonnull align 8 dereferenceable(232) %38)
  call void @llvm.memcpy.p0.p0.i64(ptr align 8 %15, ptr align 8 %6, i64 8, i1 false)
  call void @llvm.memcpy.p0.p0.i64(ptr align 8 %16, ptr align 8 %10, i64 8, i1 false)
  %40 = getelementptr inbounds %class.LIR_Opr, ptr %15, i32 0, i32 0
  %41 = load i64, ptr %40, align 8
  %42 = getelementptr inbounds %class.LIR_Opr, ptr %16, i32 0, i32 0
  %43 = load i64, ptr %42, align 8
  call void @_ZN8LIR_List4lealE7LIR_OprS0_13LIR_PatchCodeP12CodeEmitInfo(ptr noundef nonnull align 8 dereferenceable(32) %39, i64 %41, i64 %43, i32 noundef 0, ptr noundef null)
  br label %44

44:                                               ; preds = %34, %23
  call void @llvm.memcpy.p0.p0.i64(ptr align 8 %6, ptr align 8 %10, i64 8, i1 false)
  br label %45

45:                                               ; preds = %44, %4
  call void @llvm.memcpy.p0.p0.i64(ptr align 8 %5, ptr align 8 %6, i64 8, i1 false)
  %46 = getelementptr inbounds %class.LIR_Opr, ptr %5, i32 0, i32 0
  %47 = load i64, ptr %46, align 8
  ret i64 %47
}

; Function Attrs: mustprogress nounwind uwtable
define hidden i64 @_ZN22ShenandoahBarrierSetC110iu_barrierEP12LIRGenerator7LIR_OprP12CodeEmitInfom(ptr noundef nonnull align 8 dereferenceable(48) %0, ptr noundef %1, i64 %2, ptr noundef %3, i64 noundef %4) #1 align 2 {
  %6 = alloca %class.LIR_Opr, align 8
  %7 = alloca %class.LIR_Opr, align 8
  %8 = alloca ptr, align 8
  %9 = alloca ptr, align 8
  %10 = alloca ptr, align 8
  %11 = alloca i64, align 8
  %12 = alloca %class.LIR_Opr, align 8
  %13 = alloca %class.LIR_Opr, align 8
  %14 = alloca %class.LIR_Opr, align 8
  %15 = alloca %class.LIR_Opr, align 8
  %16 = getelementptr inbounds %class.LIR_Opr, ptr %7, i32 0, i32 0
  store i64 %2, ptr %16, align 8
  store ptr %0, ptr %8, align 8
  store ptr %1, ptr %9, align 8
  store ptr %3, ptr %10, align 8
  store i64 %4, ptr %11, align 8
  %17 = load ptr, ptr %8, align 8
  %18 = load i8, ptr @ShenandoahIUBarrier, align 1
  %19 = trunc i8 %18 to i1
  br i1 %19, label %20, label %33

20:                                               ; preds = %5
  %21 = load ptr, ptr %9, align 8
  call void @llvm.memcpy.p0.p0.i64(ptr align 8 %13, ptr align 8 %7, i64 8, i1 false)
  %22 = getelementptr inbounds %class.LIR_Opr, ptr %13, i32 0, i32 0
  %23 = load i64, ptr %22, align 8
  %24 = call i64 @_ZN22ShenandoahBarrierSetC118ensure_in_registerEP12LIRGenerator7LIR_Opr9BasicType(ptr noundef nonnull align 8 dereferenceable(48) %17, ptr noundef %21, i64 %23, i8 noundef zeroext 12)
  %25 = getelementptr inbounds %class.LIR_Opr, ptr %12, i32 0, i32 0
  store i64 %24, ptr %25, align 8
  call void @llvm.memcpy.p0.p0.i64(ptr align 8 %7, ptr align 8 %12, i64 8, i1 false)
  %26 = load ptr, ptr %9, align 8
  %27 = load ptr, ptr %10, align 8
  %28 = load i64, ptr %11, align 8
  call void @llvm.memcpy.p0.p0.i64(ptr align 8 %14, ptr align 8 @_ZN11LIR_OprFact10illegalOprE, i64 8, i1 false)
  call void @llvm.memcpy.p0.p0.i64(ptr align 8 %15, ptr align 8 %7, i64 8, i1 false)
  %29 = getelementptr inbounds %class.LIR_Opr, ptr %14, i32 0, i32 0
  %30 = load i64, ptr %29, align 8
  %31 = getelementptr inbounds %class.LIR_Opr, ptr %15, i32 0, i32 0
  %32 = load i64, ptr %31, align 8
  call void @_ZN22ShenandoahBarrierSetC111pre_barrierEP12LIRGeneratorP12CodeEmitInfom7LIR_OprS4_(ptr noundef nonnull align 8 dereferenceable(48) %17, ptr noundef %26, ptr noundef %27, i64 noundef %28, i64 %30, i64 %32)
  br label %33

33:                                               ; preds = %20, %5
  call void @llvm.memcpy.p0.p0.i64(ptr align 8 %6, ptr align 8 %7, i64 8, i1 false)
  %34 = getelementptr inbounds %class.LIR_Opr, ptr %6, i32 0, i32 0
  %35 = load i64, ptr %34, align 8
  ret i64 %35
}