; Function Attrs: mustprogress nounwind uwtable
define hidden i64 @_ZN22ShenandoahBarrierSetC110iu_barrierEP12LIRGenerator7LIR_OprP12CodeEmitInfom(ptr nocapture nonnull readnone align 8 %0, ptr noundef %1, i64 %2, ptr noundef %3, i64 noundef %4) local_unnamed_addr #0 align 2 {
  %6 = load i8, ptr @ShenandoahIUBarrier, align 1
  %7 = trunc i8 %6 to i1
  br i1 %7, label %8, label %24

8:                                                ; preds = %5
  %9 = and i64 %2, 7
  switch i64 %9, label %10 [
    i64 5, label %_ZN22ShenandoahBarrierSetC118ensure_in_registerEP12LIRGenerator7LIR_Opr9BasicType.exit
    i64 3, label %_ZN22ShenandoahBarrierSetC118ensure_in_registerEP12LIRGenerator7LIR_Opr9BasicType.exit
  ]

10:                                               ; preds = %8
  %11 = and i64 %2, 1
  %12 = icmp eq i64 %11, 0
  br i1 %12, label %_ZNK7LIR_Opr11is_constantEv.exit.i, label %_ZNK7LIR_Opr11is_constantEv.exit.thread.i

_ZNK7LIR_Opr11is_constantEv.exit.i:               ; preds = %10
  %13 = inttoptr i64 %2 to ptr
  %14 = load ptr, ptr %13, align 8
  %15 = load ptr, ptr %14, align 8
  %16 = tail call noundef ptr %15(ptr noundef nonnull align 8 dereferenceable(8) %13) #8
  %.not.i = icmp eq ptr %16, null
  br i1 %.not.i, label %_ZNK7LIR_Opr11is_constantEv.exit.thread.i, label %17

17:                                               ; preds = %_ZNK7LIR_Opr11is_constantEv.exit.i
  %18 = tail call i64 @_ZN12LIRGenerator12new_registerE9BasicType(ptr noundef nonnull align 8 dereferenceable(232) %1, i8 noundef zeroext 12) #8
  %19 = getelementptr inbounds i8, ptr %1, i64 144
  %20 = load ptr, ptr %19, align 8
  tail call void @_ZN8LIR_List4moveE7LIR_OprS0_P12CodeEmitInfo(ptr noundef nonnull align 8 dereferenceable(32) %20, i64 %2, i64 %18, ptr noundef null)
  br label %_ZN22ShenandoahBarrierSetC118ensure_in_registerEP12LIRGenerator7LIR_Opr9BasicType.exit

_ZNK7LIR_Opr11is_constantEv.exit.thread.i:        ; preds = %_ZNK7LIR_Opr11is_constantEv.exit.i, %10
  %21 = tail call i64 @_ZN12LIRGenerator12new_registerE9BasicType(ptr noundef nonnull align 8 dereferenceable(232) %1, i8 noundef zeroext 11) #8
  %22 = getelementptr inbounds i8, ptr %1, i64 144
  %23 = load ptr, ptr %22, align 8
  tail call void @_ZN8LIR_List4lealE7LIR_OprS0_13LIR_PatchCodeP12CodeEmitInfo(ptr noundef nonnull align 8 dereferenceable(32) %23, i64 %2, i64 %21, i32 noundef 0, ptr noundef null)
  br label %_ZN22ShenandoahBarrierSetC118ensure_in_registerEP12LIRGenerator7LIR_Opr9BasicType.exit

_ZN22ShenandoahBarrierSetC118ensure_in_registerEP12LIRGenerator7LIR_Opr9BasicType.exit: ; preds = %8, %8, %17, %_ZNK7LIR_Opr11is_constantEv.exit.thread.i
  %.sroa.012.0.i = phi i64 [ %2, %8 ], [ %18, %17 ], [ %21, %_ZNK7LIR_Opr11is_constantEv.exit.thread.i ], [ %2, %8 ]
  %.sroa.01.0.copyload = load i64, ptr @_ZN11LIR_OprFact10illegalOprE, align 8
  tail call void @_ZN22ShenandoahBarrierSetC111pre_barrierEP12LIRGeneratorP12CodeEmitInfom7LIR_OprS4_(ptr nonnull align 8 poison, ptr noundef %1, ptr noundef %3, i64 noundef %4, i64 %.sroa.01.0.copyload, i64 %.sroa.012.0.i)
  br label %24

24:                                               ; preds = %_ZN22ShenandoahBarrierSetC118ensure_in_registerEP12LIRGenerator7LIR_Opr9BasicType.exit, %5
  %.sroa.07.0 = phi i64 [ %.sroa.012.0.i, %_ZN22ShenandoahBarrierSetC118ensure_in_registerEP12LIRGenerator7LIR_Opr9BasicType.exit ], [ %2, %5 ]
  ret i64 %.sroa.07.0
}